; Function Attrs: nounwind uwtable
define ptr @bufferevent_get_token_bucket_cfg(ptr noundef readonly captures(none) %0) local_unnamed_addr #3 {
  %2 = getelementptr inbounds nuw i8, ptr %0, i64 448
  %3 = load ptr, ptr %2, align 8
  %.not = icmp eq ptr %3, null
  br i1 %.not, label %7, label %4

4:                                                ; preds = %1
  %5 = load ptr, ptr getelementptr inbounds nuw (i8, ptr @evthread_lock_fns_, i64 24), align 8
  %6 = tail call i32 %5(i32 noundef 0, ptr noundef nonnull %3) #10
  br label %7

7:                                                ; preds = %4, %1
  %8 = getelementptr inbounds nuw i8, ptr %0, i64 472
  %9 = load ptr, ptr %8, align 8
  %.not13 = icmp eq ptr %9, null
  br i1 %.not13, label %13, label %10

10:                                               ; preds = %7
  %11 = getelementptr inbounds nuw i8, ptr %9, i64 48
  %12 = load ptr, ptr %11, align 8
  br label %13

13:                                               ; preds = %7, %10
  %.0 = phi ptr [ %12, %10 ], [ null, %7 ]
  %14 = load ptr, ptr %2, align 8
  %.not14 = icmp eq ptr %14, null
  br i1 %.not14, label %18, label %15

15:                                               ; preds = %13
  %16 = load ptr, ptr getelementptr inbounds nuw (i8, ptr @evthread_lock_fns_, i64 32), align 8
  %17 = tail call i32 %16(i32 noundef 0, ptr noundef nonnull %14) #10
  br label %18

18:                                               ; preds = %15, %13
  ret ptr %.0
}